target datalayout = "e-m:e-p270:32:32-p271:32:32-p272:64:64-i64:64-i128:128-f80:128-n8:16:32:64-S128"
target triple = "x86_64-unknown-linux-gnu"

%struct.ResourceData = type { ptr, ptr, ptr, ptr, i32, i32, ptr, i32, i32, i8, i8, i8, i8 }

; Function Attrs: mustprogress nounwind uwtable
define internal noundef i32 @_ZL18makeResourceFrom16PK12ResourceDatai(ptr noundef %pResData, i32 noundef %res16) #2 {
entry:
  %pResData.addr = alloca ptr, align 8
  %res16.addr = alloca i32, align 4
  store ptr %pResData, ptr %pResData.addr, align 8
  store i32 %res16, ptr %res16.addr, align 4
  %0 = load i32, ptr %res16.addr, align 4
  %1 = load ptr, ptr %pResData.addr, align 8
  %poolStringIndex16Limit = getelementptr inbounds %struct.ResourceData, ptr %1, i32 0, i32 8
  %2 = load i32, ptr %poolStringIndex16Limit, align 4
  %cmp = icmp slt i32 %0, %2
  br i1 %cmp, label %if.then, label %if.else

if.then:                                          ; preds = %entry
  br label %if.end

if.else:                                          ; preds = %entry
  %3 = load i32, ptr %res16.addr, align 4
  %4 = load ptr, ptr %pResData.addr, align 8
  %poolStringIndex16Limit1 = getelementptr inbounds %struct.ResourceData, ptr %4, i32 0, i32 8
  %5 = load i32, ptr %poolStringIndex16Limit1, align 4
  %sub = sub nsw i32 %3, %5
  %6 = load ptr, ptr %pResData.addr, align 8
  %poolStringIndexLimit = getelementptr inbounds %struct.ResourceData, ptr %6, i32 0, i32 7
  %7 = load i32, ptr %poolStringIndexLimit, align 8
  %add = add nsw i32 %sub, %7
  store i32 %add, ptr %res16.addr, align 4
  br label %if.end

if.end:                                           ; preds = %if.else, %if.then
  %8 = load i32, ptr %res16.addr, align 4
  %or = or i32 1610612736, %8
  ret i32 %or
}

; Function Attrs: mustprogress uwtable
define i32 @res_getTableItemByIndex_75(ptr noundef %pResData, i32 noundef %table, i32 noundef %indexR, ptr noundef %key) #0 {
entry:
  %retval = alloca i32, align 4
  %pResData.addr = alloca ptr, align 8
  %table.addr = alloca i32, align 4
  %indexR.addr = alloca i32, align 4
  %key.addr = alloca ptr, align 8
  %offset = alloca i32, align 4
  %length = alloca i32, align 4
  %p = alloca ptr, align 8
  %p32 = alloca ptr, align 8
  %p34 = alloca ptr, align 8
  %p76 = alloca ptr, align 8
  store ptr %pResData, ptr %pResData.addr, align 8
  store i32 %table, ptr %table.addr, align 4
  store i32 %indexR, ptr %indexR.addr, align 4
  store ptr %key, ptr %key.addr, align 8
  %0 = load i32, ptr %table.addr, align 4
  %and = and i32 %0, 268435455
  store i32 %and, ptr %offset, align 4
  %1 = load i32, ptr %indexR.addr, align 4
  %cmp = icmp slt i32 %1, 0
  br i1 %cmp, label %if.then, label %if.end

if.then:                                          ; preds = %entry
  store i32 -1, ptr %retval, align 4
  br label %return

if.end:                                           ; preds = %entry
  %2 = load i32, ptr %table.addr, align 4
  %shr = lshr i32 %2, 28
  switch i32 %shr, label %sw.default [
    i32 2, label %sw.bb
    i32 5, label %sw.bb33
    i32 4, label %sw.bb73
  ]

sw.bb:                                            ; preds = %if.end
  %3 = load i32, ptr %offset, align 4
  %cmp1 = icmp ne i32 %3, 0
  br i1 %cmp1, label %if.then2, label %if.end32

if.then2:                                         ; preds = %sw.bb
  %4 = load ptr, ptr %pResData.addr, align 8
  %pRoot = getelementptr inbounds %struct.ResourceData, ptr %4, i32 0, i32 1
  %5 = load ptr, ptr %pRoot, align 8
  %6 = load i32, ptr %offset, align 4
  %idx.ext = zext i32 %6 to i64
  %add.ptr = getelementptr inbounds i32, ptr %5, i64 %idx.ext
  store ptr %add.ptr, ptr %p, align 8
  %7 = load ptr, ptr %p, align 8
  %incdec.ptr = getelementptr inbounds i16, ptr %7, i32 1
  store ptr %incdec.ptr, ptr %p, align 8
  %8 = load i16, ptr %7, align 2
  %conv = zext i16 %8 to i32
  store i32 %conv, ptr %length, align 4
  %9 = load i32, ptr %indexR.addr, align 4
  %10 = load i32, ptr %length, align 4
  %cmp3 = icmp slt i32 %9, %10
  br i1 %cmp3, label %if.then4, label %if.end31

if.then4:                                         ; preds = %if.then2
  %11 = load ptr, ptr %p, align 8
  %12 = load i32, ptr %length, align 4
  %idx.ext5 = sext i32 %12 to i64
  %add.ptr6 = getelementptr inbounds i16, ptr %11, i64 %idx.ext5
  %13 = load i32, ptr %length, align 4
  %not = xor i32 %13, -1
  %and7 = and i32 %not, 1
  %idx.ext8 = sext i32 %and7 to i64
  %add.ptr9 = getelementptr inbounds i16, ptr %add.ptr6, i64 %idx.ext8
  store ptr %add.ptr9, ptr %p32, align 8
  %14 = load ptr, ptr %key.addr, align 8
  %cmp10 = icmp ne ptr %14, null
  br i1 %cmp10, label %if.then11, label %if.end28

if.then11:                                        ; preds = %if.then4
  %15 = load ptr, ptr %p, align 8
  %16 = load i32, ptr %indexR.addr, align 4
  %idxprom = sext i32 %16 to i64
  %arrayidx = getelementptr inbounds i16, ptr %15, i64 %idxprom
  %17 = load i16, ptr %arrayidx, align 2
  %conv12 = zext i16 %17 to i32
  %18 = load ptr, ptr %pResData.addr, align 8
  %localKeyLimit = getelementptr inbounds %struct.ResourceData, ptr %18, i32 0, i32 5
  %19 = load i32, ptr %localKeyLimit, align 4
  %cmp13 = icmp slt i32 %conv12, %19
  br i1 %cmp13, label %cond.true, label %cond.false

cond.true:                                        ; preds = %if.then11
  %20 = load ptr, ptr %pResData.addr, align 8
  %pRoot14 = getelementptr inbounds %struct.ResourceData, ptr %20, i32 0, i32 1
  %21 = load ptr, ptr %pRoot14, align 8
  %22 = load ptr, ptr %p, align 8
  %23 = load i32, ptr %indexR.addr, align 4
  %idxprom15 = sext i32 %23 to i64
  %arrayidx16 = getelementptr inbounds i16, ptr %22, i64 %idxprom15
  %24 = load i16, ptr %arrayidx16, align 2
  %conv17 = zext i16 %24 to i32
  %idx.ext18 = sext i32 %conv17 to i64
  %add.ptr19 = getelementptr inbounds i8, ptr %21, i64 %idx.ext18
  br label %cond.end

cond.false:                                       ; preds = %if.then11
  %25 = load ptr, ptr %pResData.addr, align 8
  %poolBundleKeys = getelementptr inbounds %struct.ResourceData, ptr %25, i32 0, i32 3
  %26 = load ptr, ptr %poolBundleKeys, align 8
  %27 = load ptr, ptr %p, align 8
  %28 = load i32, ptr %indexR.addr, align 4
  %idxprom20 = sext i32 %28 to i64
  %arrayidx21 = getelementptr inbounds i16, ptr %27, i64 %idxprom20
  %29 = load i16, ptr %arrayidx21, align 2
  %conv22 = zext i16 %29 to i32
  %idx.ext23 = sext i32 %conv22 to i64
  %add.ptr24 = getelementptr inbounds i8, ptr %26, i64 %idx.ext23
  %30 = load ptr, ptr %pResData.addr, align 8
  %localKeyLimit25 = getelementptr inbounds %struct.ResourceData, ptr %30, i32 0, i32 5
  %31 = load i32, ptr %localKeyLimit25, align 4
  %idx.ext26 = sext i32 %31 to i64
  %idx.neg = sub i64 0, %idx.ext26
  %add.ptr27 = getelementptr inbounds i8, ptr %add.ptr24, i64 %idx.neg
  br label %cond.end

cond.end:                                         ; preds = %cond.false, %cond.true
  %cond = phi ptr [ %add.ptr19, %cond.true ], [ %add.ptr27, %cond.false ]
  %32 = load ptr, ptr %key.addr, align 8
  store ptr %cond, ptr %32, align 8
  br label %if.end28

if.end28:                                         ; preds = %cond.end, %if.then4
  %33 = load ptr, ptr %p32, align 8
  %34 = load i32, ptr %indexR.addr, align 4
  %idxprom29 = sext i32 %34 to i64
  %arrayidx30 = getelementptr inbounds i32, ptr %33, i64 %idxprom29
  %35 = load i32, ptr %arrayidx30, align 4
  store i32 %35, ptr %retval, align 4
  br label %return

if.end31:                                         ; preds = %if.then2
  br label %if.end32

if.end32:                                         ; preds = %if.end31, %sw.bb
  br label %sw.epilog

sw.bb33:                                          ; preds = %if.end
  %36 = load ptr, ptr %pResData.addr, align 8
  %p16BitUnits = getelementptr inbounds %struct.ResourceData, ptr %36, i32 0, i32 2
  %37 = load ptr, ptr %p16BitUnits, align 8
  %38 = load i32, ptr %offset, align 4
  %idx.ext35 = zext i32 %38 to i64
  %add.ptr36 = getelementptr inbounds i16, ptr %37, i64 %idx.ext35
  store ptr %add.ptr36, ptr %p34, align 8
  %39 = load ptr, ptr %p34, align 8
  %incdec.ptr37 = getelementptr inbounds i16, ptr %39, i32 1
  store ptr %incdec.ptr37, ptr %p34, align 8
  %40 = load i16, ptr %39, align 2
  %conv38 = zext i16 %40 to i32
  store i32 %conv38, ptr %length, align 4
  %41 = load i32, ptr %indexR.addr, align 4
  %42 = load i32, ptr %length, align 4
  %cmp39 = icmp slt i32 %41, %42
  br i1 %cmp39, label %if.then40, label %if.end72

if.then40:                                        ; preds = %sw.bb33
  %43 = load ptr, ptr %key.addr, align 8
  %cmp41 = icmp ne ptr %43, null
  br i1 %cmp41, label %if.then42, label %if.end68

if.then42:                                        ; preds = %if.then40
  %44 = load ptr, ptr %p34, align 8
  %45 = load i32, ptr %indexR.addr, align 4
  %idxprom43 = sext i32 %45 to i64
  %arrayidx44 = getelementptr inbounds i16, ptr %44, i64 %idxprom43
  %46 = load i16, ptr %arrayidx44, align 2
  %conv45 = zext i16 %46 to i32
  %47 = load ptr, ptr %pResData.addr, align 8
  %localKeyLimit46 = getelementptr inbounds %struct.ResourceData, ptr %47, i32 0, i32 5
  %48 = load i32, ptr %localKeyLimit46, align 4
  %cmp47 = icmp slt i32 %conv45, %48
  br i1 %cmp47, label %cond.true48, label %cond.false55

cond.true48:                                      ; preds = %if.then42
  %49 = load ptr, ptr %pResData.addr, align 8
  %pRoot49 = getelementptr inbounds %struct.ResourceData, ptr %49, i32 0, i32 1
  %50 = load ptr, ptr %pRoot49, align 8
  %51 = load ptr, ptr %p34, align 8
  %52 = load i32, ptr %indexR.addr, align 4
  %idxprom50 = sext i32 %52 to i64
  %arrayidx51 = getelementptr inbounds i16, ptr %51, i64 %idxprom50
  %53 = load i16, ptr %arrayidx51, align 2
  %conv52 = zext i16 %53 to i32
  %idx.ext53 = sext i32 %conv52 to i64
  %add.ptr54 = getelementptr inbounds i8, ptr %50, i64 %idx.ext53
  br label %cond.end66

cond.false55:                                     ; preds = %if.then42
  %54 = load ptr, ptr %pResData.addr, align 8
  %poolBundleKeys56 = getelementptr inbounds %struct.ResourceData, ptr %54, i32 0, i32 3
  %55 = load ptr, ptr %poolBundleKeys56, align 8
  %56 = load ptr, ptr %p34, align 8
  %57 = load i32, ptr %indexR.addr, align 4
  %idxprom57 = sext i32 %57 to i64
  %arrayidx58 = getelementptr inbounds i16, ptr %56, i64 %idxprom57
  %58 = load i16, ptr %arrayidx58, align 2
  %conv59 = zext i16 %58 to i32
  %idx.ext60 = sext i32 %conv59 to i64
  %add.ptr61 = getelementptr inbounds i8, ptr %55, i64 %idx.ext60
  %59 = load ptr, ptr %pResData.addr, align 8
  %localKeyLimit62 = getelementptr inbounds %struct.ResourceData, ptr %59, i32 0, i32 5
  %60 = load i32, ptr %localKeyLimit62, align 4
  %idx.ext63 = sext i32 %60 to i64
  %idx.neg64 = sub i64 0, %idx.ext63
  %add.ptr65 = getelementptr inbounds i8, ptr %add.ptr61, i64 %idx.neg64
  br label %cond.end66

cond.end66:                                       ; preds = %cond.false55, %cond.true48
  %cond67 = phi ptr [ %add.ptr54, %cond.true48 ], [ %add.ptr65, %cond.false55 ]
  %61 = load ptr, ptr %key.addr, align 8
  store ptr %cond67, ptr %61, align 8
  br label %if.end68

if.end68:                                         ; preds = %cond.end66, %if.then40
  %62 = load ptr, ptr %pResData.addr, align 8
  %63 = load ptr, ptr %p34, align 8
  %64 = load i32, ptr %length, align 4
  %65 = load i32, ptr %indexR.addr, align 4
  %add = add nsw i32 %64, %65
  %idxprom69 = sext i32 %add to i64
  %arrayidx70 = getelementptr inbounds i16, ptr %63, i64 %idxprom69
  %66 = load i16, ptr %arrayidx70, align 2
  %conv71 = zext i16 %66 to i32
  %call = call noundef i32 @_ZL18makeResourceFrom16PK12ResourceDatai(ptr noundef %62, i32 noundef %conv71)
  store i32 %call, ptr %retval, align 4
  br label %return

if.end72:                                         ; preds = %sw.bb33
  br label %sw.epilog

sw.bb73:                                          ; preds = %if.end
  %67 = load i32, ptr %offset, align 4
  %cmp74 = icmp ne i32 %67, 0
  br i1 %cmp74, label %if.then75, label %if.end108

if.then75:                                        ; preds = %sw.bb73
  %68 = load ptr, ptr %pResData.addr, align 8
  %pRoot77 = getelementptr inbounds %struct.ResourceData, ptr %68, i32 0, i32 1
  %69 = load ptr, ptr %pRoot77, align 8
  %70 = load i32, ptr %offset, align 4
  %idx.ext78 = zext i32 %70 to i64
  %add.ptr79 = getelementptr inbounds i32, ptr %69, i64 %idx.ext78
  store ptr %add.ptr79, ptr %p76, align 8
  %71 = load ptr, ptr %p76, align 8
  %incdec.ptr80 = getelementptr inbounds i32, ptr %71, i32 1
  store ptr %incdec.ptr80, ptr %p76, align 8
  %72 = load i32, ptr %71, align 4
  store i32 %72, ptr %length, align 4
  %73 = load i32, ptr %indexR.addr, align 4
  %74 = load i32, ptr %length, align 4
  %cmp81 = icmp slt i32 %73, %74
  br i1 %cmp81, label %if.then82, label %if.end107

if.then82:                                        ; preds = %if.then75
  %75 = load ptr, ptr %key.addr, align 8
  %cmp83 = icmp ne ptr %75, null
  br i1 %cmp83, label %if.then84, label %if.end103

if.then84:                                        ; preds = %if.then82
  %76 = load ptr, ptr %p76, align 8
  %77 = load i32, ptr %indexR.addr, align 4
  %idxprom85 = sext i32 %77 to i64
  %arrayidx86 = getelementptr inbounds i32, ptr %76, i64 %idxprom85
  %78 = load i32, ptr %arrayidx86, align 4
  %cmp87 = icmp sge i32 %78, 0
  br i1 %cmp87, label %cond.true88, label %cond.false94

cond.true88:                                      ; preds = %if.then84
  %79 = load ptr, ptr %pResData.addr, align 8
  %pRoot89 = getelementptr inbounds %struct.ResourceData, ptr %79, i32 0, i32 1
  %80 = load ptr, ptr %pRoot89, align 8
  %81 = load ptr, ptr %p76, align 8
  %82 = load i32, ptr %indexR.addr, align 4
  %idxprom90 = sext i32 %82 to i64
  %arrayidx91 = getelementptr inbounds i32, ptr %81, i64 %idxprom90
  %83 = load i32, ptr %arrayidx91, align 4
  %idx.ext92 = sext i32 %83 to i64
  %add.ptr93 = getelementptr inbounds i8, ptr %80, i64 %idx.ext92
  br label %cond.end101

cond.false94:                                     ; preds = %if.then84
  %84 = load ptr, ptr %pResData.addr, align 8
  %poolBundleKeys95 = getelementptr inbounds %struct.ResourceData, ptr %84, i32 0, i32 3
  %85 = load ptr, ptr %poolBundleKeys95, align 8
  %86 = load ptr, ptr %p76, align 8
  %87 = load i32, ptr %indexR.addr, align 4
  %idxprom96 = sext i32 %87 to i64
  %arrayidx97 = getelementptr inbounds i32, ptr %86, i64 %idxprom96
  %88 = load i32, ptr %arrayidx97, align 4
  %and98 = and i32 %88, 2147483647
  %idx.ext99 = sext i32 %and98 to i64
  %add.ptr100 = getelementptr inbounds i8, ptr %85, i64 %idx.ext99
  br label %cond.end101

cond.end101:                                      ; preds = %cond.false94, %cond.true88
  %cond102 = phi ptr [ %add.ptr93, %cond.true88 ], [ %add.ptr100, %cond.false94 ]
  %89 = load ptr, ptr %key.addr, align 8
  store ptr %cond102, ptr %89, align 8
  br label %if.end103

if.end103:                                        ; preds = %cond.end101, %if.then82
  %90 = load ptr, ptr %p76, align 8
  %91 = load i32, ptr %length, align 4
  %92 = load i32, ptr %indexR.addr, align 4
  %add104 = add nsw i32 %91, %92
  %idxprom105 = sext i32 %add104 to i64
  %arrayidx106 = getelementptr inbounds i32, ptr %90, i64 %idxprom105
  %93 = load i32, ptr %arrayidx106, align 4
  store i32 %93, ptr %retval, align 4
  br label %return

if.end107:                                        ; preds = %if.then75
  br label %if.end108

if.end108:                                        ; preds = %if.end107, %sw.bb73
  br label %sw.epilog

sw.default:                                       ; preds = %if.end
  br label %sw.epilog

sw.epilog:                                        ; preds = %sw.default, %if.end108, %if.end72, %if.end32
  store i32 -1, ptr %retval, align 4
  br label %return

return:                                           ; preds = %sw.epilog, %if.end103, %if.end68, %if.end28, %if.then
  %94 = load i32, ptr %retval, align 4
  ret i32 %94
}