; Function Attrs: mustprogress nofree norecurse nosync nounwind willreturn memory(read, argmem: readwrite, inaccessiblemem: none) uwtable
define i32 @res_getTableItemByIndex_75(ptr nocapture noundef readonly %pResData, i32 noundef %table, i32 noundef %indexR, ptr noundef writeonly %key) local_unnamed_addr #5 {
entry:
  %and = and i32 %table, 268435455
  %cmp = icmp slt i32 %indexR, 0
  br i1 %cmp, label %return, label %if.end

if.end:                                           ; preds = %entry
  %shr = lshr i32 %table, 28
  switch i32 %shr, label %return [
    i32 2, label %sw.bb
    i32 5, label %sw.bb33
    i32 4, label %sw.bb73
  ]

sw.bb:                                            ; preds = %if.end
  %cmp1.not = icmp eq i32 %and, 0
  br i1 %cmp1.not, label %return, label %if.then2

if.then2:                                         ; preds = %sw.bb
  %pRoot = getelementptr inbounds i8, ptr %pResData, i64 8
  %0 = load ptr, ptr %pRoot, align 8
  %idx.ext = zext nneg i32 %and to i64
  %add.ptr = getelementptr inbounds i32, ptr %0, i64 %idx.ext
  %incdec.ptr = getelementptr inbounds i8, ptr %add.ptr, i64 2
  %1 = load i16, ptr %add.ptr, align 2
  %conv = zext i16 %1 to i32
  %cmp3 = icmp ugt i32 %conv, %indexR
  br i1 %cmp3, label %if.then4, label %return

if.then4:                                         ; preds = %if.then2
  %idx.ext5 = zext i16 %1 to i64
  %add.ptr6 = getelementptr inbounds i16, ptr %incdec.ptr, i64 %idx.ext5
  %not = and i32 %conv, 1
  %and7 = xor i32 %not, 1
  %idx.ext8 = zext nneg i32 %and7 to i64
  %add.ptr9 = getelementptr inbounds i16, ptr %add.ptr6, i64 %idx.ext8
  %cmp10.not = icmp eq ptr %key, null
  %.pre = zext nneg i32 %indexR to i64
  br i1 %cmp10.not, label %if.end28, label %if.then11

if.then11:                                        ; preds = %if.then4
  %arrayidx = getelementptr inbounds i16, ptr %incdec.ptr, i64 %.pre
  %2 = load i16, ptr %arrayidx, align 2
  %conv12 = zext i16 %2 to i32
  %localKeyLimit = getelementptr inbounds i8, ptr %pResData, i64 36
  %3 = load i32, ptr %localKeyLimit, align 4
  %cmp13 = icmp sgt i32 %3, %conv12
  br i1 %cmp13, label %cond.true, label %cond.false

cond.true:                                        ; preds = %if.then11
  %idx.ext18 = zext i16 %2 to i64
  %add.ptr19 = getelementptr inbounds i8, ptr %0, i64 %idx.ext18
  br label %cond.end

cond.false:                                       ; preds = %if.then11
  %poolBundleKeys = getelementptr inbounds i8, ptr %pResData, i64 24
  %4 = load ptr, ptr %poolBundleKeys, align 8
  %idx.ext23 = zext i16 %2 to i64
  %add.ptr24 = getelementptr inbounds i8, ptr %4, i64 %idx.ext23
  %idx.ext26 = sext i32 %3 to i64
  %idx.neg = sub nsw i64 0, %idx.ext26
  %add.ptr27 = getelementptr inbounds i8, ptr %add.ptr24, i64 %idx.neg
  br label %cond.end

cond.end:                                         ; preds = %cond.false, %cond.true
  %cond = phi ptr [ %add.ptr19, %cond.true ], [ %add.ptr27, %cond.false ]
  store ptr %cond, ptr %key, align 8
  br label %if.end28

if.end28:                                         ; preds = %if.then4, %cond.end
  %arrayidx30 = getelementptr inbounds i32, ptr %add.ptr9, i64 %.pre
  %5 = load i32, ptr %arrayidx30, align 4
  br label %return

sw.bb33:                                          ; preds = %if.end
  %p16BitUnits = getelementptr inbounds i8, ptr %pResData, i64 16
  %6 = load ptr, ptr %p16BitUnits, align 8
  %idx.ext35 = zext nneg i32 %and to i64
  %add.ptr36 = getelementptr inbounds i16, ptr %6, i64 %idx.ext35
  %incdec.ptr37 = getelementptr inbounds i8, ptr %add.ptr36, i64 2
  %7 = load i16, ptr %add.ptr36, align 2
  %conv38 = zext i16 %7 to i32
  %cmp39 = icmp ugt i32 %conv38, %indexR
  br i1 %cmp39, label %if.then40, label %return

if.then40:                                        ; preds = %sw.bb33
  %cmp41.not = icmp eq ptr %key, null
  br i1 %cmp41.not, label %if.end68, label %if.then42

if.then42:                                        ; preds = %if.then40
  %idxprom43 = zext nneg i32 %indexR to i64
  %arrayidx44 = getelementptr inbounds i16, ptr %incdec.ptr37, i64 %idxprom43
  %8 = load i16, ptr %arrayidx44, align 2
  %conv45 = zext i16 %8 to i32
  %localKeyLimit46 = getelementptr inbounds i8, ptr %pResData, i64 36
  %9 = load i32, ptr %localKeyLimit46, align 4
  %cmp47 = icmp sgt i32 %9, %conv45
  %idx.ext53 = zext i16 %8 to i64
  br i1 %cmp47, label %cond.true48, label %cond.false55

cond.true48:                                      ; preds = %if.then42
  %pRoot49 = getelementptr inbounds i8, ptr %pResData, i64 8
  %10 = load ptr, ptr %pRoot49, align 8
  %add.ptr54 = getelementptr inbounds i8, ptr %10, i64 %idx.ext53
  br label %cond.end66

cond.false55:                                     ; preds = %if.then42
  %poolBundleKeys56 = getelementptr inbounds i8, ptr %pResData, i64 24
  %11 = load ptr, ptr %poolBundleKeys56, align 8
  %add.ptr61 = getelementptr inbounds i8, ptr %11, i64 %idx.ext53
  %idx.ext63 = sext i32 %9 to i64
  %idx.neg64 = sub nsw i64 0, %idx.ext63
  %add.ptr65 = getelementptr inbounds i8, ptr %add.ptr61, i64 %idx.neg64
  br label %cond.end66

cond.end66:                                       ; preds = %cond.false55, %cond.true48
  %cond67 = phi ptr [ %add.ptr54, %cond.true48 ], [ %add.ptr65, %cond.false55 ]
  store ptr %cond67, ptr %key, align 8
  br label %if.end68

if.end68:                                         ; preds = %cond.end66, %if.then40
  %add = add nuw nsw i32 %conv38, %indexR
  %idxprom69 = zext nneg i32 %add to i64
  %arrayidx70 = getelementptr inbounds i16, ptr %incdec.ptr37, i64 %idxprom69
  %12 = load i16, ptr %arrayidx70, align 2
  %conv71 = zext i16 %12 to i32
  %poolStringIndex16Limit.i = getelementptr inbounds i8, ptr %pResData, i64 52
  %13 = load i32, ptr %poolStringIndex16Limit.i, align 4
  %cmp.i = icmp sgt i32 %13, %conv71
  br i1 %cmp.i, label %_ZL18makeResourceFrom16PK12ResourceDatai.exit, label %if.else.i

if.else.i:                                        ; preds = %if.end68
  %sub.i = sub i32 %conv71, %13
  %poolStringIndexLimit.i = getelementptr inbounds i8, ptr %pResData, i64 48
  %14 = load i32, ptr %poolStringIndexLimit.i, align 8
  %add.i = add nsw i32 %sub.i, %14
  br label %_ZL18makeResourceFrom16PK12ResourceDatai.exit

_ZL18makeResourceFrom16PK12ResourceDatai.exit:    ; preds = %if.end68, %if.else.i
  %res16.addr.0.i = phi i32 [ %conv71, %if.end68 ], [ %add.i, %if.else.i ]
  %or.i = or i32 %res16.addr.0.i, 1610612736
  br label %return

sw.bb73:                                          ; preds = %if.end
  %cmp74.not = icmp eq i32 %and, 0
  br i1 %cmp74.not, label %return, label %if.then75

if.then75:                                        ; preds = %sw.bb73
  %pRoot77 = getelementptr inbounds i8, ptr %pResData, i64 8
  %15 = load ptr, ptr %pRoot77, align 8
  %idx.ext78 = zext nneg i32 %and to i64
  %add.ptr79 = getelementptr inbounds i32, ptr %15, i64 %idx.ext78
  %incdec.ptr80 = getelementptr inbounds i8, ptr %add.ptr79, i64 4
  %16 = load i32, ptr %add.ptr79, align 4
  %cmp81 = icmp sgt i32 %16, %indexR
  br i1 %cmp81, label %if.then82, label %return

if.then82:                                        ; preds = %if.then75
  %cmp83.not = icmp eq ptr %key, null
  br i1 %cmp83.not, label %if.end103, label %if.then84

if.then84:                                        ; preds = %if.then82
  %idxprom85 = zext nneg i32 %indexR to i64
  %arrayidx86 = getelementptr inbounds i32, ptr %incdec.ptr80, i64 %idxprom85
  %17 = load i32, ptr %arrayidx86, align 4
  %cmp87 = icmp sgt i32 %17, -1
  br i1 %cmp87, label %cond.end101, label %cond.false94

cond.false94:                                     ; preds = %if.then84
  %poolBundleKeys95 = getelementptr inbounds i8, ptr %pResData, i64 24
  %18 = load ptr, ptr %poolBundleKeys95, align 8
  %and98 = and i32 %17, 2147483647
  br label %cond.end101

cond.end101:                                      ; preds = %if.then84, %cond.false94
  %and98.sink = phi i32 [ %and98, %cond.false94 ], [ %17, %if.then84 ]
  %.sink = phi ptr [ %18, %cond.false94 ], [ %15, %if.then84 ]
  %idx.ext99 = zext nneg i32 %and98.sink to i64
  %add.ptr100 = getelementptr inbounds i8, ptr %.sink, i64 %idx.ext99
  store ptr %add.ptr100, ptr %key, align 8
  br label %if.end103

if.end103:                                        ; preds = %cond.end101, %if.then82
  %add104 = add nuw nsw i32 %16, %indexR
  %idxprom105 = zext nneg i32 %add104 to i64
  %arrayidx106 = getelementptr inbounds i32, ptr %incdec.ptr80, i64 %idxprom105
  %19 = load i32, ptr %arrayidx106, align 4
  br label %return

return:                                           ; preds = %if.then2, %sw.bb, %sw.bb33, %if.then75, %sw.bb73, %if.end, %entry, %if.end103, %_ZL18makeResourceFrom16PK12ResourceDatai.exit, %if.end28
  %retval.0 = phi i32 [ %19, %if.end103 ], [ %or.i, %_ZL18makeResourceFrom16PK12ResourceDatai.exit ], [ %5, %if.end28 ], [ -1, %entry ], [ -1, %if.end ], [ -1, %sw.bb73 ], [ -1, %if.then75 ], [ -1, %sw.bb33 ], [ -1, %sw.bb ], [ -1, %if.then2 ]
  ret i32 %retval.0
}